target datalayout = "e-m:e-p270:32:32-p271:32:32-p272:64:64-i64:64-i128:128-f80:128-n8:16:32:64-S128"
target triple = "x86_64-pc-linux-gnu"

%"class.cv::Point_" = type { i32, i32 }
%"class.cv::Matx" = type { [4 x double] }
%"class.cv::Scalar_" = type { %"class.cv::Vec" }
%"class.cv::Vec" = type { %"class.cv::Matx" }
%"struct.cv::gapi::wip::draw::Line" = type <{ %"class.cv::Point_", %"class.cv::Point_", %"class.cv::Scalar_", i32, i32, i32, [4 x i8] }>

; Function Attrs: mustprogress uwtable
define noundef nonnull align 8 dereferenceable(8) ptr @_ZN2cv4gapi4s11nlsERNS1_8IOStreamERKNS_6Point_IiEE(ptr noundef nonnull align 8 dereferenceable(8) %0, ptr noundef nonnull align 4 dereferenceable(8) %1) #4 {
  %3 = alloca ptr, align 8
  %4 = alloca ptr, align 8
  store ptr %0, ptr %3, align 8, !tbaa !3
  store ptr %1, ptr %4, align 8, !tbaa !8
  %5 = load ptr, ptr %3, align 8, !tbaa !3
  %6 = load ptr, ptr %4, align 8, !tbaa !8
  %7 = getelementptr inbounds nuw %"class.cv::Point_", ptr %6, i32 0, i32 0
  %8 = load i32, ptr %7, align 4, !tbaa !10
  %9 = load ptr, ptr %5, align 8, !tbaa !13
  %10 = getelementptr inbounds ptr, ptr %9, i64 7
  %11 = load ptr, ptr %10, align 8
  %12 = call noundef nonnull align 8 dereferenceable(8) ptr %11(ptr noundef nonnull align 8 dereferenceable(8) %5, i32 noundef %8)
  %13 = load ptr, ptr %4, align 8, !tbaa !8
  %14 = getelementptr inbounds nuw %"class.cv::Point_", ptr %13, i32 0, i32 1
  %15 = load i32, ptr %14, align 4, !tbaa !15
  %16 = load ptr, ptr %12, align 8, !tbaa !13
  %17 = getelementptr inbounds ptr, ptr %16, i64 7
  %18 = load ptr, ptr %17, align 8
  %19 = call noundef nonnull align 8 dereferenceable(8) ptr %18(ptr noundef nonnull align 8 dereferenceable(8) %12, i32 noundef %15)
  ret ptr %19
}

; Function Attrs: mustprogress uwtable
define noundef nonnull align 8 dereferenceable(8) ptr @_ZN2cv4gapi4s11nlsERNS1_8IOStreamERKNS_7Scalar_IdEE(ptr noundef nonnull align 8 dereferenceable(8) %0, ptr noundef nonnull align 8 dereferenceable(32) %1) #4 {
  %3 = alloca ptr, align 8
  %4 = alloca ptr, align 8
  store ptr %0, ptr %3, align 8, !tbaa !3
  store ptr %1, ptr %4, align 8, !tbaa !42
  %5 = load ptr, ptr %3, align 8, !tbaa !3
  %6 = load ptr, ptr %4, align 8, !tbaa !42
  %7 = getelementptr inbounds nuw %"class.cv::Matx", ptr %6, i32 0, i32 0
  %8 = getelementptr inbounds [4 x double], ptr %7, i64 0, i64 0
  %9 = load double, ptr %8, align 8, !tbaa !44
  %10 = load ptr, ptr %5, align 8, !tbaa !13
  %11 = getelementptr inbounds ptr, ptr %10, i64 11
  %12 = load ptr, ptr %11, align 8
  %13 = call noundef nonnull align 8 dereferenceable(8) ptr %12(ptr noundef nonnull align 8 dereferenceable(8) %5, double noundef %9)
  %14 = load ptr, ptr %4, align 8, !tbaa !42
  %15 = getelementptr inbounds nuw %"class.cv::Matx", ptr %14, i32 0, i32 0
  %16 = getelementptr inbounds [4 x double], ptr %15, i64 0, i64 1
  %17 = load double, ptr %16, align 8, !tbaa !44
  %18 = load ptr, ptr %13, align 8, !tbaa !13
  %19 = getelementptr inbounds ptr, ptr %18, i64 11
  %20 = load ptr, ptr %19, align 8
  %21 = call noundef nonnull align 8 dereferenceable(8) ptr %20(ptr noundef nonnull align 8 dereferenceable(8) %13, double noundef %17)
  %22 = load ptr, ptr %4, align 8, !tbaa !42
  %23 = getelementptr inbounds nuw %"class.cv::Matx", ptr %22, i32 0, i32 0
  %24 = getelementptr inbounds [4 x double], ptr %23, i64 0, i64 2
  %25 = load double, ptr %24, align 8, !tbaa !44
  %26 = load ptr, ptr %21, align 8, !tbaa !13
  %27 = getelementptr inbounds ptr, ptr %26, i64 11
  %28 = load ptr, ptr %27, align 8
  %29 = call noundef nonnull align 8 dereferenceable(8) ptr %28(ptr noundef nonnull align 8 dereferenceable(8) %21, double noundef %25)
  %30 = load ptr, ptr %4, align 8, !tbaa !42
  %31 = getelementptr inbounds nuw %"class.cv::Matx", ptr %30, i32 0, i32 0
  %32 = getelementptr inbounds [4 x double], ptr %31, i64 0, i64 3
  %33 = load double, ptr %32, align 8, !tbaa !44
  %34 = load ptr, ptr %29, align 8, !tbaa !13
  %35 = getelementptr inbounds ptr, ptr %34, i64 11
  %36 = load ptr, ptr %35, align 8
  %37 = call noundef nonnull align 8 dereferenceable(8) ptr %36(ptr noundef nonnull align 8 dereferenceable(8) %29, double noundef %33)
  ret ptr %37
}

; Function Attrs: mustprogress uwtable
define noundef nonnull align 8 dereferenceable(8) ptr @_ZN2cv4gapi4s11nlsERNS1_8IOStreamERKNS0_3wip4draw4LineE(ptr noundef nonnull align 8 dereferenceable(8) %0, ptr noundef nonnull align 8 dereferenceable(60) %1) #4 {
  %3 = alloca ptr, align 8
  %4 = alloca ptr, align 8
  store ptr %0, ptr %3, align 8, !tbaa !3
  store ptr %1, ptr %4, align 8, !tbaa !131
  %5 = load ptr, ptr %3, align 8, !tbaa !3
  %6 = load ptr, ptr %4, align 8, !tbaa !131
  %7 = getelementptr inbounds nuw %"struct.cv::gapi::wip::draw::Line", ptr %6, i32 0, i32 2
  %8 = call noundef nonnull align 8 dereferenceable(8) ptr @_ZN2cv4gapi4s11nlsERNS1_8IOStreamERKNS_7Scalar_IdEE(ptr noundef nonnull align 8 dereferenceable(8) %5, ptr noundef nonnull align 8 dereferenceable(32) %7)
  %9 = load ptr, ptr %4, align 8, !tbaa !131
  %10 = getelementptr inbounds nuw %"struct.cv::gapi::wip::draw::Line", ptr %9, i32 0, i32 4
  %11 = load i32, ptr %10, align 4, !tbaa !133
  %12 = load ptr, ptr %8, align 8, !tbaa !13
  %13 = getelementptr inbounds ptr, ptr %12, i64 7
  %14 = load ptr, ptr %13, align 8
  %15 = call noundef nonnull align 8 dereferenceable(8) ptr %14(ptr noundef nonnull align 8 dereferenceable(8) %8, i32 noundef %11)
  %16 = load ptr, ptr %4, align 8, !tbaa !131
  %17 = getelementptr inbounds nuw %"struct.cv::gapi::wip::draw::Line", ptr %16, i32 0, i32 0
  %18 = call noundef nonnull align 8 dereferenceable(8) ptr @_ZN2cv4gapi4s11nlsERNS1_8IOStreamERKNS_6Point_IiEE(ptr noundef nonnull align 8 dereferenceable(8) %15, ptr noundef nonnull align 4 dereferenceable(8) %17)
  %19 = load ptr, ptr %4, align 8, !tbaa !131
  %20 = getelementptr inbounds nuw %"struct.cv::gapi::wip::draw::Line", ptr %19, i32 0, i32 1
  %21 = call noundef nonnull align 8 dereferenceable(8) ptr @_ZN2cv4gapi4s11nlsERNS1_8IOStreamERKNS_6Point_IiEE(ptr noundef nonnull align 8 dereferenceable(8) %18, ptr noundef nonnull align 4 dereferenceable(8) %20)
  %22 = load ptr, ptr %4, align 8, !tbaa !131
  %23 = getelementptr inbounds nuw %"struct.cv::gapi::wip::draw::Line", ptr %22, i32 0, i32 5
  %24 = load i32, ptr %23, align 8, !tbaa !135
  %25 = load ptr, ptr %21, align 8, !tbaa !13
  %26 = getelementptr inbounds ptr, ptr %25, i64 7
  %27 = load ptr, ptr %26, align 8
  %28 = call noundef nonnull align 8 dereferenceable(8) ptr %27(ptr noundef nonnull align 8 dereferenceable(8) %21, i32 noundef %24)
  %29 = load ptr, ptr %4, align 8, !tbaa !131
  %30 = getelementptr inbounds nuw %"struct.cv::gapi::wip::draw::Line", ptr %29, i32 0, i32 3
  %31 = load i32, ptr %30, align 8, !tbaa !136
  %32 = load ptr, ptr %28, align 8, !tbaa !13
  %33 = getelementptr inbounds ptr, ptr %32, i64 7
  %34 = load ptr, ptr %33, align 8
  %35 = call noundef nonnull align 8 dereferenceable(8) ptr %34(ptr noundef nonnull align 8 dereferenceable(8) %28, i32 noundef %31)
  ret ptr %35
}