; Function Attrs: mustprogress uwtable
define noundef nonnull align 8 dereferenceable(8) ptr @_ZN2cv4gapi4s11nlsERNS1_8IOStreamERKNS0_3wip4draw4LineE(ptr noundef nonnull align 8 dereferenceable(8) %0, ptr noundef nonnull readonly align 8 captures(none) dereferenceable(60) %1) local_unnamed_addr #3 {
  %3 = getelementptr inbounds nuw i8, ptr %1, i64 16
  %4 = load double, ptr %3, align 8, !tbaa !27
  %5 = load ptr, ptr %0, align 8, !tbaa !8
  %6 = getelementptr inbounds nuw i8, ptr %5, i64 88
  %7 = load ptr, ptr %6, align 8
  %8 = tail call noundef nonnull align 8 dereferenceable(8) ptr %7(ptr noundef nonnull align 8 dereferenceable(8) %0, double noundef %4)
  %9 = getelementptr inbounds nuw i8, ptr %1, i64 24
  %10 = load double, ptr %9, align 8, !tbaa !27
  %11 = load ptr, ptr %8, align 8, !tbaa !8
  %12 = getelementptr inbounds nuw i8, ptr %11, i64 88
  %13 = load ptr, ptr %12, align 8
  %14 = tail call noundef nonnull align 8 dereferenceable(8) ptr %13(ptr noundef nonnull align 8 dereferenceable(8) %8, double noundef %10)
  %15 = getelementptr inbounds nuw i8, ptr %1, i64 32
  %16 = load double, ptr %15, align 8, !tbaa !27
  %17 = load ptr, ptr %14, align 8, !tbaa !8
  %18 = getelementptr inbounds nuw i8, ptr %17, i64 88
  %19 = load ptr, ptr %18, align 8
  %20 = tail call noundef nonnull align 8 dereferenceable(8) ptr %19(ptr noundef nonnull align 8 dereferenceable(8) %14, double noundef %16)
  %21 = getelementptr inbounds nuw i8, ptr %1, i64 40
  %22 = load double, ptr %21, align 8, !tbaa !27
  %23 = load ptr, ptr %20, align 8, !tbaa !8
  %24 = getelementptr inbounds nuw i8, ptr %23, i64 88
  %25 = load ptr, ptr %24, align 8
  %26 = tail call noundef nonnull align 8 dereferenceable(8) ptr %25(ptr noundef nonnull align 8 dereferenceable(8) %20, double noundef %22)
  %27 = getelementptr inbounds nuw i8, ptr %1, i64 52
  %28 = load i32, ptr %27, align 4, !tbaa !114
  %29 = load ptr, ptr %26, align 8, !tbaa !8
  %30 = getelementptr inbounds nuw i8, ptr %29, i64 56
  %31 = load ptr, ptr %30, align 8
  %32 = tail call noundef nonnull align 8 dereferenceable(8) ptr %31(ptr noundef nonnull align 8 dereferenceable(8) %26, i32 noundef %28)
  %33 = load i32, ptr %1, align 8, !tbaa !3
  %34 = load ptr, ptr %32, align 8, !tbaa !8
  %35 = getelementptr inbounds nuw i8, ptr %34, i64 56
  %36 = load ptr, ptr %35, align 8
  %37 = tail call noundef nonnull align 8 dereferenceable(8) ptr %36(ptr noundef nonnull align 8 dereferenceable(8) %32, i32 noundef %33)
  %38 = getelementptr inbounds nuw i8, ptr %1, i64 4
  %39 = load i32, ptr %38, align 4, !tbaa !10
  %40 = load ptr, ptr %37, align 8, !tbaa !8
  %41 = getelementptr inbounds nuw i8, ptr %40, i64 56
  %42 = load ptr, ptr %41, align 8
  %43 = tail call noundef nonnull align 8 dereferenceable(8) ptr %42(ptr noundef nonnull align 8 dereferenceable(8) %37, i32 noundef %39)
  %44 = getelementptr inbounds nuw i8, ptr %1, i64 8
  %45 = load i32, ptr %44, align 8, !tbaa !3
  %46 = load ptr, ptr %43, align 8, !tbaa !8
  %47 = getelementptr inbounds nuw i8, ptr %46, i64 56
  %48 = load ptr, ptr %47, align 8
  %49 = tail call noundef nonnull align 8 dereferenceable(8) ptr %48(ptr noundef nonnull align 8 dereferenceable(8) %43, i32 noundef %45)
  %50 = getelementptr inbounds nuw i8, ptr %1, i64 12
  %51 = load i32, ptr %50, align 4, !tbaa !10
  %52 = load ptr, ptr %49, align 8, !tbaa !8
  %53 = getelementptr inbounds nuw i8, ptr %52, i64 56
  %54 = load ptr, ptr %53, align 8
  %55 = tail call noundef nonnull align 8 dereferenceable(8) ptr %54(ptr noundef nonnull align 8 dereferenceable(8) %49, i32 noundef %51)
  %56 = getelementptr inbounds nuw i8, ptr %1, i64 56
  %57 = load i32, ptr %56, align 8, !tbaa !116
  %58 = load ptr, ptr %55, align 8, !tbaa !8
  %59 = getelementptr inbounds nuw i8, ptr %58, i64 56
  %60 = load ptr, ptr %59, align 8
  %61 = tail call noundef nonnull align 8 dereferenceable(8) ptr %60(ptr noundef nonnull align 8 dereferenceable(8) %55, i32 noundef %57)
  %62 = getelementptr inbounds nuw i8, ptr %1, i64 48
  %63 = load i32, ptr %62, align 8, !tbaa !117
  %64 = load ptr, ptr %61, align 8, !tbaa !8
  %65 = getelementptr inbounds nuw i8, ptr %64, i64 56
  %66 = load ptr, ptr %65, align 8
  %67 = tail call noundef nonnull align 8 dereferenceable(8) ptr %66(ptr noundef nonnull align 8 dereferenceable(8) %61, i32 noundef %63)
  ret ptr %67
}